target datalayout = "e-m:e-p270:32:32-p271:32:32-p272:64:64-i64:64-i128:128-f80:128-n8:16:32:64-S128"
target triple = "x86_64-pc-linux-gnu"

%struct.Vmem = type { ptr, i64, i64 }
%struct.Expr_ = type { ptr, %union.SourceSpan, i16, %union.anon.29 }
%union.SourceSpan = type { i64 }
%union.anon.29 = type { %struct.ExprAnySwitch }
%struct.ExprAnySwitch = type { i8, %union.anon.31 }
%union.anon.31 = type { %struct.anon.32 }
%struct.anon.32 = type { ptr, %union.SourceSpan, ptr }
%struct.ExprConst = type { i16, %union.anon.38 }
%union.anon.38 = type { %struct.Int }
%struct.Int = type { %struct.Int128_, i32 }
%struct.Int128_ = type { i64, i64 }
%struct.ExprCast = type { i8, i32, i32 }

@expr_arena = external global %struct.Vmem, align 8

; Function Attrs: nounwind uwtable
define internal ptr @expr_calloc() #0 {
  %1 = call ptr @vmem_alloc(ptr noundef @expr_arena, i64 noundef 56)
  ret ptr %1
}

; Function Attrs: nounwind uwtable
define internal i32 @exprid(ptr noundef %0) #0 {
  %2 = alloca ptr, align 8
  store ptr %0, ptr %2, align 8
  %3 = load ptr, ptr %2, align 8
  %4 = load ptr, ptr @expr_arena, align 8
  %5 = ptrtoint ptr %3 to i64
  %6 = ptrtoint ptr %4 to i64
  %7 = sub i64 %5, %6
  %8 = sdiv exact i64 %7, 56
  %9 = trunc i64 %8 to i32
  ret i32 %9
}

; Function Attrs: nounwind uwtable
define internal ptr @expr_copy(ptr noundef %0) #0 {
  %2 = alloca ptr, align 8
  %3 = alloca ptr, align 8
  store ptr %0, ptr %2, align 8
  %4 = call ptr @expr_calloc()
  store ptr %4, ptr %3, align 8
  %5 = load ptr, ptr %3, align 8
  %6 = load ptr, ptr %2, align 8
  call void @llvm.memcpy.p0.p0.i64(ptr align 8 %5, ptr align 8 %6, i64 56, i1 false)
  %7 = load ptr, ptr %3, align 8
  ret ptr %7
}

; Function Attrs: nounwind uwtable
define internal zeroext i1 @insert_runtime_cast(ptr noundef %0, i32 noundef %1, ptr noundef %2) #0 {
  %4 = alloca ptr, align 8
  %5 = alloca i32, align 4
  %6 = alloca ptr, align 8
  %7 = alloca ptr, align 8
  store ptr %0, ptr %4, align 8
  store i32 %1, ptr %5, align 4
  store ptr %2, ptr %6, align 8
  %8 = load ptr, ptr %4, align 8
  %9 = call ptr @expr_copy(ptr noundef %8)
  store ptr %9, ptr %7, align 8
  %10 = load ptr, ptr %4, align 8
  %11 = getelementptr inbounds %struct.Expr_, ptr %10, i32 0, i32 2
  %12 = load i16, ptr %11, align 8
  %13 = and i16 %12, -256
  %14 = or i16 %13, 9
  store i16 %14, ptr %11, align 8
  %15 = load i32, ptr %5, align 4
  %16 = load ptr, ptr %4, align 8
  %17 = getelementptr inbounds %struct.Expr_, ptr %16, i32 0, i32 3
  %18 = trunc i32 %15 to i8
  store i8 %18, ptr %17, align 8
  %19 = load ptr, ptr %7, align 8
  %20 = call i32 @exprid(ptr noundef %19)
  %21 = load ptr, ptr %4, align 8
  %22 = getelementptr inbounds %struct.Expr_, ptr %21, i32 0, i32 3
  %23 = getelementptr inbounds %struct.ExprCast, ptr %22, i32 0, i32 1
  store i32 %20, ptr %23, align 4
  %24 = load ptr, ptr %4, align 8
  %25 = getelementptr inbounds %struct.Expr_, ptr %24, i32 0, i32 3
  %26 = getelementptr inbounds %struct.ExprCast, ptr %25, i32 0, i32 2
  store i32 0, ptr %26, align 8
  %27 = load ptr, ptr %6, align 8
  %28 = load ptr, ptr %4, align 8
  %29 = getelementptr inbounds %struct.Expr_, ptr %28, i32 0, i32 0
  store ptr %27, ptr %29, align 8
  ret i1 true
}

; Function Attrs: nounwind uwtable
define internal void @cast_ptr_to_bool(ptr noundef %0, ptr noundef %1, ptr noundef %2) #0 {
  %4 = alloca ptr, align 8
  %5 = alloca ptr, align 8
  %6 = alloca i8, align 1
  %7 = alloca %struct.ExprConst, align 8
  %8 = alloca ptr, align 8
  %9 = alloca ptr, align 8
  %10 = alloca i8, align 1
  %11 = alloca %struct.ExprConst, align 8
  %12 = alloca ptr, align 8
  %13 = alloca i1, align 1
  %14 = alloca ptr, align 8
  %15 = alloca i32, align 4
  %16 = alloca ptr, align 8
  %17 = alloca ptr, align 8
  %18 = alloca ptr, align 8
  %19 = alloca ptr, align 8
  store ptr %0, ptr %17, align 8
  store ptr %1, ptr %18, align 8
  store ptr %2, ptr %19, align 8
  %20 = load ptr, ptr %18, align 8
  %21 = load ptr, ptr %19, align 8
  store ptr %20, ptr %14, align 8
  store i32 27, ptr %15, align 4
  store ptr %21, ptr %16, align 8
  %22 = load ptr, ptr %14, align 8
  store ptr %22, ptr %12, align 8
  %23 = load ptr, ptr %12, align 8
  %24 = getelementptr inbounds %struct.Expr_, ptr %23, i32 0, i32 2
  %25 = load i16, ptr %24, align 8
  %26 = and i16 %25, 255
  %27 = zext i16 %26 to i32
  %28 = icmp eq i32 %27, 14
  br i1 %28, label %29, label %37

29:                                               ; preds = %3
  %30 = load ptr, ptr %14, align 8
  %31 = getelementptr inbounds %struct.Expr_, ptr %30, i32 0, i32 3
  %32 = load i16, ptr %31, align 8
  %33 = and i16 %32, 255
  %34 = zext i16 %33 to i32
  %35 = icmp ne i32 %34, 8
  br i1 %35, label %36, label %37

36:                                               ; preds = %29
  store i1 false, ptr %13, align 1
  br label %42

37:                                               ; preds = %29, %3
  %38 = load ptr, ptr %14, align 8
  %39 = load i32, ptr %15, align 4
  %40 = load ptr, ptr %16, align 8
  %41 = call zeroext i1 @insert_runtime_cast(ptr noundef %38, i32 noundef %39, ptr noundef %40)
  store i1 %41, ptr %13, align 1
  br label %42

42:                                               ; preds = %37, %36
  %43 = load i1, ptr %13, align 1
  br i1 %43, label %44, label %45

44:                                               ; preds = %42
  br label %106

45:                                               ; preds = %42
  %46 = load ptr, ptr %18, align 8
  %47 = getelementptr inbounds %struct.Expr_, ptr %46, i32 0, i32 3
  %48 = load i16, ptr %47, align 8
  %49 = and i16 %48, 255
  %50 = zext i16 %49 to i32
  %51 = icmp eq i32 %50, 7
  br i1 %51, label %52, label %82

52:                                               ; preds = %45
  %53 = load ptr, ptr %18, align 8
  %54 = load ptr, ptr %19, align 8
  %55 = load ptr, ptr %18, align 8
  %56 = getelementptr inbounds %struct.Expr_, ptr %55, i32 0, i32 3
  %57 = getelementptr inbounds %struct.ExprConst, ptr %56, i32 0, i32 1
  %58 = load i64, ptr %57, align 8
  %59 = icmp ne i64 %58, 0
  store ptr %53, ptr %4, align 8
  store ptr %54, ptr %5, align 8
  %60 = zext i1 %59 to i8
  store i8 %60, ptr %6, align 1
  %61 = load ptr, ptr %4, align 8
  %62 = getelementptr inbounds %struct.Expr_, ptr %61, i32 0, i32 2
  %63 = load i16, ptr %62, align 8
  %64 = and i16 %63, -256
  %65 = or i16 %64, 14
  store i16 %65, ptr %62, align 8
  %66 = load ptr, ptr %5, align 8
  %67 = load ptr, ptr %4, align 8
  store ptr %66, ptr %67, align 8
  %68 = load ptr, ptr %4, align 8
  %69 = getelementptr inbounds %struct.Expr_, ptr %68, i32 0, i32 3
  call void @llvm.memset.p0.i64(ptr align 8 %7, i8 0, i64 32, i1 false)
  %70 = load i16, ptr %7, align 8
  %71 = and i16 %70, -256
  %72 = or i16 %71, 2
  store i16 %72, ptr %7, align 8
  %73 = getelementptr inbounds %struct.ExprConst, ptr %7, i32 0, i32 1
  %74 = load i8, ptr %6, align 1
  %75 = trunc i8 %74 to i1
  %76 = zext i1 %75 to i8
  store i8 %76, ptr %73, align 8
  call void @llvm.memcpy.p0.p0.i64(ptr align 8 %69, ptr align 8 %7, i64 32, i1 false)
  %77 = load ptr, ptr %4, align 8
  %78 = getelementptr inbounds %struct.Expr_, ptr %77, i32 0, i32 2
  %79 = load i16, ptr %78, align 8
  %80 = and i16 %79, -3841
  %81 = or i16 %80, 512
  store i16 %81, ptr %78, align 8
  br label %106

82:                                               ; preds = %45
  %83 = load ptr, ptr %18, align 8
  %84 = load ptr, ptr %19, align 8
  store ptr %83, ptr %8, align 8
  store ptr %84, ptr %9, align 8
  store i8 1, ptr %10, align 1
  %85 = load ptr, ptr %8, align 8
  %86 = getelementptr inbounds %struct.Expr_, ptr %85, i32 0, i32 2
  %87 = load i16, ptr %86, align 8
  %88 = and i16 %87, -256
  %89 = or i16 %88, 14
  store i16 %89, ptr %86, align 8
  %90 = load ptr, ptr %9, align 8
  %91 = load ptr, ptr %8, align 8
  store ptr %90, ptr %91, align 8
  %92 = load ptr, ptr %8, align 8
  %93 = getelementptr inbounds %struct.Expr_, ptr %92, i32 0, i32 3
  call void @llvm.memset.p0.i64(ptr align 8 %11, i8 0, i64 32, i1 false)
  %94 = load i16, ptr %11, align 8
  %95 = and i16 %94, -256
  %96 = or i16 %95, 2
  store i16 %96, ptr %11, align 8
  %97 = getelementptr inbounds %struct.ExprConst, ptr %11, i32 0, i32 1
  %98 = load i8, ptr %10, align 1
  %99 = trunc i8 %98 to i1
  %100 = zext i1 %99 to i8
  store i8 %100, ptr %97, align 8
  call void @llvm.memcpy.p0.p0.i64(ptr align 8 %93, ptr align 8 %11, i64 32, i1 false)
  %101 = load ptr, ptr %8, align 8
  %102 = getelementptr inbounds %struct.Expr_, ptr %101, i32 0, i32 2
  %103 = load i16, ptr %102, align 8
  %104 = and i16 %103, -3841
  %105 = or i16 %104, 512
  store i16 %105, ptr %102, align 8
  br label %106

106:                                              ; preds = %82, %52, %44
  ret void
}