; Function Attrs: nounwind uwtable
define internal void @cast_ptr_to_bool(ptr nocapture readnone %0, ptr nocapture noundef %1, ptr noundef %2) #0 {
  %4 = getelementptr inbounds i8, ptr %1, i64 16
  %5 = load i16, ptr %4, align 8
  %6 = and i16 %5, 255
  %7 = icmp eq i16 %6, 14
  br i1 %7, label %8, label %.critedge

8:                                                ; preds = %3
  %9 = getelementptr inbounds i8, ptr %1, i64 24
  %10 = load i16, ptr %9, align 8
  %trunc = trunc i16 %10 to i8
  switch i8 %trunc, label %31 [
    i8 8, label %.critedge
    i8 7, label %24
  ]

.critedge:                                        ; preds = %8, %3
  %11 = tail call noundef ptr @vmem_alloc(ptr noundef nonnull @expr_arena, i64 noundef 56) #10
  tail call void @llvm.memcpy.p0.p0.i64(ptr noundef nonnull align 8 dereferenceable(56) %11, ptr noundef nonnull align 8 dereferenceable(56) %1, i64 56, i1 false)
  %12 = load i16, ptr %4, align 8
  %13 = and i16 %12, -256
  %14 = or disjoint i16 %13, 9
  store i16 %14, ptr %4, align 8
  %15 = getelementptr inbounds i8, ptr %1, i64 24
  store i8 27, ptr %15, align 8
  %16 = load ptr, ptr @expr_arena, align 8
  %17 = ptrtoint ptr %11 to i64
  %18 = ptrtoint ptr %16 to i64
  %19 = sub i64 %17, %18
  %20 = sdiv exact i64 %19, 56
  %21 = trunc i64 %20 to i32
  %22 = getelementptr inbounds i8, ptr %1, i64 28
  store i32 %21, ptr %22, align 4
  %23 = getelementptr inbounds i8, ptr %1, i64 32
  store i32 0, ptr %23, align 8
  store ptr %2, ptr %1, align 8
  br label %34

24:                                               ; preds = %8
  %25 = getelementptr inbounds i8, ptr %1, i64 32
  %26 = load i64, ptr %25, align 8
  %27 = icmp ne i64 %26, 0
  %28 = zext i1 %27 to i8
  store ptr %2, ptr %1, align 8
  store i16 2, ptr %9, align 8
  %.sroa.423.0..sroa_idx = getelementptr inbounds i8, ptr %1, i64 26
  tail call void @llvm.memset.p0.i64(ptr noundef nonnull align 2 dereferenceable(6) %.sroa.423.0..sroa_idx, i8 0, i64 6, i1 false)
  store i8 %28, ptr %25, align 8
  %.sroa.525.0..sroa_idx = getelementptr inbounds i8, ptr %1, i64 33
  tail call void @llvm.memset.p0.i64(ptr noundef nonnull align 1 dereferenceable(23) %.sroa.525.0..sroa_idx, i8 0, i64 23, i1 false)
  %29 = and i16 %5, -4082
  %30 = or disjoint i16 %29, 512
  store i16 %30, ptr %4, align 8
  br label %34

31:                                               ; preds = %8
  store ptr %2, ptr %1, align 8
  store i16 2, ptr %9, align 8
  %.sroa.4.0..sroa_idx = getelementptr inbounds i8, ptr %1, i64 26
  tail call void @llvm.memset.p0.i64(ptr noundef nonnull align 2 dereferenceable(6) %.sroa.4.0..sroa_idx, i8 0, i64 6, i1 false)
  %.sroa.414.0..sroa_idx = getelementptr inbounds i8, ptr %1, i64 32
  store i8 1, ptr %.sroa.414.0..sroa_idx, align 8
  %.sroa.5.0..sroa_idx = getelementptr inbounds i8, ptr %1, i64 33
  tail call void @llvm.memset.p0.i64(ptr noundef nonnull align 1 dereferenceable(23) %.sroa.5.0..sroa_idx, i8 0, i64 23, i1 false)
  %32 = and i16 %5, -4082
  %33 = or disjoint i16 %32, 512
  store i16 %33, ptr %4, align 8
  br label %34

34:                                               ; preds = %.critedge, %31, %24
  ret void
}